; Function Attrs: mustprogress nounwind uwtable
define hidden noundef zeroext i1 @_ZNK15DictionaryEntry26is_in_package_access_cacheEP7oopDesc(ptr noundef nonnull align 8 dereferenceable(16) %0, ptr noundef readnone %1) local_unnamed_addr #0 align 2 {
  %3 = load ptr, ptr %0, align 8
  %4 = load ptr, ptr %3, align 8
  %5 = getelementptr inbounds i8, ptr %4, i64 232
  %6 = load ptr, ptr %5, align 8
  %7 = tail call noundef ptr %6(ptr noundef nonnull align 8 dereferenceable(464) %3) #15
  %8 = icmp eq ptr %7, %1
  br i1 %8, label %.loopexit, label %9

9:                                                ; preds = %2
  %10 = getelementptr inbounds i8, ptr %0, i64 8
  %11 = load volatile ptr, ptr %10, align 8
  tail call void asm sideeffect "", "~{memory},~{dirflag},~{fpsr},~{flags}"() #15, !srcloc !9
  %.not9 = icmp eq ptr %11, null
  br i1 %.not9, label %.loopexit, label %.lr.ph

.lr.ph:                                           ; preds = %9, %14
  %.010 = phi ptr [ %16, %14 ], [ %11, %9 ]
  %12 = tail call noundef ptr @_ZN21ProtectionDomainEntry19object_no_keepaliveEv(ptr noundef nonnull align 8 dereferenceable(16) %.010) #15
  %13 = icmp eq ptr %12, %1
  br i1 %13, label %.loopexit, label %14

14:                                               ; preds = %.lr.ph
  %15 = getelementptr inbounds i8, ptr %.010, i64 8
  %16 = load volatile ptr, ptr %15, align 8
  tail call void asm sideeffect "", "~{memory},~{dirflag},~{fpsr},~{flags}"() #15, !srcloc !9
  %.not = icmp eq ptr %16, null
  br i1 %.not, label %.loopexit, label %.lr.ph, !llvm.loop !12

.loopexit:                                        ; preds = %.lr.ph, %14, %9, %2
  %.07 = phi i1 [ true, %2 ], [ false, %9 ], [ %13, %14 ], [ %13, %.lr.ph ]
  ret i1 %.07
}